target datalayout = "e-m:e-p270:32:32-p271:32:32-p272:64:64-i64:64-i128:128-f80:128-n8:16:32:64-S128"
target triple = "x86_64-pc-linux-gnu"

%struct.H5D_chk_idx_info_t = type { ptr, ptr, ptr, ptr }
%struct.H5O_storage_chunk_t = type { i32, i64, ptr, %union.anon.4 }
%union.anon.4 = type { %struct.H5O_storage_chunk_btree_t }
%struct.H5O_storage_chunk_btree_t = type { i64, ptr }
%struct.H5O_storage_chunk_farray_t = type { i64, ptr }
%struct.H5O_pline_t = type { %struct.H5O_shared_t, i32, i64, i64, ptr }
%struct.H5O_shared_t = type { i32, ptr, i32, %union.anon.5 }
%union.anon.5 = type { %struct.H5O_mesg_loc_t }
%struct.H5O_mesg_loc_t = type { i32, i64 }
%struct.H5O_layout_chunk_t = type { i32, i8, i32, [33 x i32], i32, i32, i64, i64, [33 x i64], [33 x i64], [33 x i64], [33 x i64], %union.anon.0 }
%union.anon.0 = type { %struct.H5O_layout_chunk_earray_t }
%struct.H5O_layout_chunk_earray_t = type { %struct.anon.1, i32, [33 x i32], [33 x i64], [33 x i64] }
%struct.anon.1 = type { i8, i8, i8, i8, i8 }
%struct.H5O_storage_chunk_bt2_t = type { i64, ptr }
%struct.H5D_chunk_common_ud_t = type { ptr, ptr, ptr }
%struct.H5FA_stat_t = type { i64, i64, i64 }
%struct.H5D_farray_it_ud_t = type { %struct.H5D_chunk_common_ud_t, %struct.H5D_chunk_rec_t, i8, ptr, ptr }
%struct.H5D_chunk_rec_t = type { [33 x i64], i32, i32, i64 }

@.str.2 = private unnamed_addr constant [103 x i8] c"generated/home/dtcxzyw/WorkSpace/Projects/compilers/llvm-opt-benchmark/bench/hdf5/hdf5/src/H5Dfarray.c\00", align 1
@H5E_DATASET_g = external global i64, align 8
@H5E_CANTOPENOBJ_g = external global i64, align 8
@H5E_CANTGET_g = external global i64, align 8
@.str.20 = private unnamed_addr constant [23 x i8] c"can't open fixed array\00", align 1
@__func__.H5D__farray_idx_iterate = private unnamed_addr constant [24 x i8] c"H5D__farray_idx_iterate\00", align 1
@.str.29 = private unnamed_addr constant [35 x i8] c"can't query fixed array statistics\00", align 1
@H5E_BADITER_g = external global i64, align 8
@.str.30 = private unnamed_addr constant [47 x i8] c"unable to iterate over fixed array chunk index\00", align 1

; Function Attrs: nounwind uwtable
define internal i32 @H5D__farray_idx_iterate(ptr noundef %0, ptr noundef %1, ptr noundef %2) #0 {
  %4 = alloca ptr, align 8
  %5 = alloca ptr, align 8
  %6 = alloca ptr, align 8
  %7 = alloca ptr, align 8
  %8 = alloca %struct.H5FA_stat_t, align 8
  %9 = alloca i32, align 4
  %10 = alloca i8, align 1
  %11 = alloca %struct.H5D_farray_it_ud_t, align 8
  store ptr %0, ptr %4, align 8
  store ptr %1, ptr %5, align 8
  store ptr %2, ptr %6, align 8
  store i32 -1, ptr %9, align 4
  store i8 0, ptr %10, align 1
  %12 = load ptr, ptr %4, align 8
  %13 = getelementptr inbounds %struct.H5D_chk_idx_info_t, ptr %12, i32 0, i32 3
  %14 = load ptr, ptr %13, align 8
  %15 = getelementptr inbounds %struct.H5O_storage_chunk_t, ptr %14, i32 0, i32 3
  %16 = getelementptr inbounds %struct.H5O_storage_chunk_bt2_t, ptr %15, i32 0, i32 1
  %17 = load ptr, ptr %16, align 8
  %18 = icmp ne ptr null, %17
  br i1 %18, label %39, label %19

19:                                               ; preds = %3
  %20 = load ptr, ptr %4, align 8
  %21 = call i32 @H5D__farray_idx_open(ptr noundef %20)
  %22 = icmp slt i32 %21, 0
  br i1 %22, label %23, label %38

23:                                               ; preds = %19
  br label %24

24:                                               ; preds = %23
  br label %25

25:                                               ; preds = %24
  br label %26

26:                                               ; preds = %25
  %27 = load i64, ptr @H5E_DATASET_g, align 8
  %28 = load i64, ptr @H5E_CANTOPENOBJ_g, align 8
  %29 = call i32 (ptr, ptr, i32, i64, i64, ptr, ...) @H5E_printf_stack(ptr noundef @.str.2, ptr noundef @__func__.H5D__farray_idx_iterate, i32 noundef 1215, i64 noundef %27, i64 noundef %28, ptr noundef @.str.20)
  br label %30

30:                                               ; preds = %26
  store i8 1, ptr %10, align 1
  %31 = load i8, ptr %10, align 1
  %32 = trunc i8 %31 to i1
  %33 = zext i1 %32 to i8
  store i8 %33, ptr %10, align 1
  br label %34

34:                                               ; preds = %30
  br label %35

35:                                               ; preds = %34
  store i32 -1, ptr %9, align 4
  br label %128

36:                                               ; No predecessors!
  br label %37

37:                                               ; preds = %36
  br label %38

38:                                               ; preds = %37, %19
  br label %50

39:                                               ; preds = %3
  %40 = load ptr, ptr %4, align 8
  %41 = getelementptr inbounds %struct.H5D_chk_idx_info_t, ptr %40, i32 0, i32 3
  %42 = load ptr, ptr %41, align 8
  %43 = getelementptr inbounds %struct.H5O_storage_chunk_t, ptr %42, i32 0, i32 3
  %44 = getelementptr inbounds %struct.H5O_storage_chunk_farray_t, ptr %43, i32 0, i32 1
  %45 = load ptr, ptr %44, align 8
  %46 = load ptr, ptr %4, align 8
  %47 = getelementptr inbounds %struct.H5D_chk_idx_info_t, ptr %46, i32 0, i32 0
  %48 = load ptr, ptr %47, align 8
  %49 = call i32 @H5FA_patch_file(ptr noundef %45, ptr noundef %48)
  br label %50

50:                                               ; preds = %39, %38
  %51 = load ptr, ptr %4, align 8
  %52 = getelementptr inbounds %struct.H5D_chk_idx_info_t, ptr %51, i32 0, i32 3
  %53 = load ptr, ptr %52, align 8
  %54 = getelementptr inbounds %struct.H5O_storage_chunk_t, ptr %53, i32 0, i32 3
  %55 = getelementptr inbounds %struct.H5O_storage_chunk_farray_t, ptr %54, i32 0, i32 1
  %56 = load ptr, ptr %55, align 8
  store ptr %56, ptr %7, align 8
  %57 = load ptr, ptr %7, align 8
  %58 = call i32 @H5FA_get_stats(ptr noundef %57, ptr noundef %8)
  %59 = icmp slt i32 %58, 0
  br i1 %59, label %60, label %75

60:                                               ; preds = %50
  br label %61

61:                                               ; preds = %60
  br label %62

62:                                               ; preds = %61
  br label %63

63:                                               ; preds = %62
  %64 = load i64, ptr @H5E_DATASET_g, align 8
  %65 = load i64, ptr @H5E_CANTGET_g, align 8
  %66 = call i32 (ptr, ptr, i32, i64, i64, ptr, ...) @H5E_printf_stack(ptr noundef @.str.2, ptr noundef @__func__.H5D__farray_idx_iterate, i32 noundef 1225, i64 noundef %64, i64 noundef %65, ptr noundef @.str.29)
  br label %67

67:                                               ; preds = %63
  store i8 1, ptr %10, align 1
  %68 = load i8, ptr %10, align 1
  %69 = trunc i8 %68 to i1
  %70 = zext i1 %69 to i8
  store i8 %70, ptr %10, align 1
  br label %71

71:                                               ; preds = %67
  br label %72

72:                                               ; preds = %71
  store i32 -1, ptr %9, align 4
  br label %128

73:                                               ; No predecessors!
  br label %74

74:                                               ; preds = %73
  br label %75

75:                                               ; preds = %74, %50
  %76 = getelementptr inbounds %struct.H5FA_stat_t, ptr %8, i32 0, i32 2
  %77 = load i64, ptr %76, align 8
  %78 = icmp ugt i64 %77, 0
  br i1 %78, label %79, label %127

79:                                               ; preds = %75
  call void @llvm.memset.p0.i64(ptr align 8 %11, i8 0, i64 328, i1 false)
  %80 = load ptr, ptr %4, align 8
  %81 = getelementptr inbounds %struct.H5D_chk_idx_info_t, ptr %80, i32 0, i32 2
  %82 = load ptr, ptr %81, align 8
  %83 = getelementptr inbounds %struct.H5D_farray_it_ud_t, ptr %11, i32 0, i32 0
  %84 = getelementptr inbounds %struct.H5D_chunk_common_ud_t, ptr %83, i32 0, i32 0
  store ptr %82, ptr %84, align 8
  %85 = load ptr, ptr %4, align 8
  %86 = getelementptr inbounds %struct.H5D_chk_idx_info_t, ptr %85, i32 0, i32 3
  %87 = load ptr, ptr %86, align 8
  %88 = getelementptr inbounds %struct.H5D_farray_it_ud_t, ptr %11, i32 0, i32 0
  %89 = getelementptr inbounds %struct.H5D_chunk_common_ud_t, ptr %88, i32 0, i32 1
  store ptr %87, ptr %89, align 8
  %90 = getelementptr inbounds %struct.H5D_farray_it_ud_t, ptr %11, i32 0, i32 1
  call void @llvm.memset.p0.i64(ptr align 8 %90, i8 0, i64 280, i1 false)
  %91 = load ptr, ptr %4, align 8
  %92 = getelementptr inbounds %struct.H5D_chk_idx_info_t, ptr %91, i32 0, i32 1
  %93 = load ptr, ptr %92, align 8
  %94 = getelementptr inbounds %struct.H5O_pline_t, ptr %93, i32 0, i32 3
  %95 = load i64, ptr %94, align 8
  %96 = icmp ugt i64 %95, 0
  %97 = getelementptr inbounds %struct.H5D_farray_it_ud_t, ptr %11, i32 0, i32 2
  %98 = zext i1 %96 to i8
  store i8 %98, ptr %97, align 8
  %99 = getelementptr inbounds %struct.H5D_farray_it_ud_t, ptr %11, i32 0, i32 2
  %100 = load i8, ptr %99, align 8
  %101 = trunc i8 %100 to i1
  br i1 %101, label %112, label %102

102:                                              ; preds = %79
  %103 = load ptr, ptr %4, align 8
  %104 = getelementptr inbounds %struct.H5D_chk_idx_info_t, ptr %103, i32 0, i32 2
  %105 = load ptr, ptr %104, align 8
  %106 = getelementptr inbounds %struct.H5O_layout_chunk_t, ptr %105, i32 0, i32 5
  %107 = load i32, ptr %106, align 4
  %108 = getelementptr inbounds %struct.H5D_farray_it_ud_t, ptr %11, i32 0, i32 1
  %109 = getelementptr inbounds %struct.H5D_chunk_rec_t, ptr %108, i32 0, i32 1
  store i32 %107, ptr %109, align 8
  %110 = getelementptr inbounds %struct.H5D_farray_it_ud_t, ptr %11, i32 0, i32 1
  %111 = getelementptr inbounds %struct.H5D_chunk_rec_t, ptr %110, i32 0, i32 2
  store i32 0, ptr %111, align 4
  br label %112

112:                                              ; preds = %102, %79
  %113 = load ptr, ptr %5, align 8
  %114 = getelementptr inbounds %struct.H5D_farray_it_ud_t, ptr %11, i32 0, i32 3
  store ptr %113, ptr %114, align 8
  %115 = load ptr, ptr %6, align 8
  %116 = getelementptr inbounds %struct.H5D_farray_it_ud_t, ptr %11, i32 0, i32 4
  store ptr %115, ptr %116, align 8
  %117 = load ptr, ptr %7, align 8
  %118 = call i32 @H5FA_iterate(ptr noundef %117, ptr noundef @H5D__farray_idx_iterate_cb, ptr noundef %11)
  store i32 %118, ptr %9, align 4
  %119 = icmp slt i32 %118, 0
  br i1 %119, label %120, label %126

120:                                              ; preds = %112
  br label %121

121:                                              ; preds = %120
  %122 = load i64, ptr @H5E_DATASET_g, align 8
  %123 = load i64, ptr @H5E_BADITER_g, align 8
  %124 = call i32 (ptr, ptr, i32, i64, i64, ptr, ...) @H5E_printf_stack(ptr noundef @.str.2, ptr noundef @__func__.H5D__farray_idx_iterate, i32 noundef 1246, i64 noundef %122, i64 noundef %123, ptr noundef @.str.30)
  br label %125

125:                                              ; preds = %121
  br label %126

126:                                              ; preds = %125, %112
  br label %127

127:                                              ; preds = %126, %75
  br label %128

128:                                              ; preds = %127, %72, %35
  %129 = load i32, ptr %9, align 4
  ret i32 %129
}