; Function Attrs: nounwind uwtable
define internal i32 @H5D__farray_idx_iterate(ptr nocapture noundef readonly %0, ptr noundef %1, ptr noundef %2) #1 {
  %4 = alloca %struct.H5FA_stat_t, align 8
  %5 = alloca %struct.H5D_farray_it_ud_t, align 8
  %6 = getelementptr inbounds i8, ptr %0, i64 24
  %7 = load ptr, ptr %6, align 8
  %8 = getelementptr inbounds i8, ptr %7, i64 32
  %9 = load ptr, ptr %8, align 8
  %.not = icmp eq ptr %9, null
  br i1 %.not, label %10, label %17

10:                                               ; preds = %3
  %11 = tail call i32 @H5D__farray_idx_open(ptr noundef nonnull %0)
  %12 = icmp slt i32 %11, 0
  br i1 %12, label %13, label %20

13:                                               ; preds = %10
  %14 = load i64, ptr @H5E_DATASET_g, align 8
  %15 = load i64, ptr @H5E_CANTOPENOBJ_g, align 8
  %16 = tail call i32 (ptr, ptr, i32, i64, i64, ptr, ...) @H5E_printf_stack(ptr noundef nonnull @.str.2, ptr noundef nonnull @__func__.H5D__farray_idx_iterate, i32 noundef 1215, i64 noundef %14, i64 noundef %15, ptr noundef nonnull @.str.20) #11
  br label %60

17:                                               ; preds = %3
  %18 = load ptr, ptr %0, align 8
  %19 = tail call i32 @H5FA_patch_file(ptr noundef nonnull %9, ptr noundef %18) #11
  br label %20

20:                                               ; preds = %10, %17
  %21 = load ptr, ptr %6, align 8
  %22 = getelementptr inbounds i8, ptr %21, i64 32
  %23 = load ptr, ptr %22, align 8
  %24 = call i32 @H5FA_get_stats(ptr noundef %23, ptr noundef nonnull %4) #11
  %25 = icmp slt i32 %24, 0
  br i1 %25, label %26, label %30

26:                                               ; preds = %20
  %27 = load i64, ptr @H5E_DATASET_g, align 8
  %28 = load i64, ptr @H5E_CANTGET_g, align 8
  %29 = call i32 (ptr, ptr, i32, i64, i64, ptr, ...) @H5E_printf_stack(ptr noundef nonnull @.str.2, ptr noundef nonnull @__func__.H5D__farray_idx_iterate, i32 noundef 1225, i64 noundef %27, i64 noundef %28, ptr noundef nonnull @.str.29) #11
  br label %60

30:                                               ; preds = %20
  %31 = getelementptr inbounds i8, ptr %4, i64 16
  %32 = load i64, ptr %31, align 8
  %.not17 = icmp eq i64 %32, 0
  br i1 %.not17, label %60, label %33

33:                                               ; preds = %30
  %34 = getelementptr inbounds i8, ptr %5, i64 16
  call void @llvm.memset.p0.i64(ptr noundef nonnull align 8 dereferenceable(328) %34, i8 0, i64 296, i1 false)
  %35 = getelementptr inbounds i8, ptr %0, i64 16
  %36 = load ptr, ptr %35, align 8
  store ptr %36, ptr %5, align 8
  %37 = load ptr, ptr %6, align 8
  %38 = getelementptr inbounds i8, ptr %5, i64 8
  store ptr %37, ptr %38, align 8
  %39 = getelementptr inbounds i8, ptr %5, i64 24
  call void @llvm.memset.p0.i64(ptr noundef nonnull align 8 dereferenceable(280) %39, i8 0, i64 280, i1 false)
  %40 = getelementptr inbounds i8, ptr %0, i64 8
  %41 = load ptr, ptr %40, align 8
  %42 = getelementptr inbounds i8, ptr %41, i64 56
  %43 = load i64, ptr %42, align 8
  %44 = icmp ne i64 %43, 0
  %45 = getelementptr inbounds i8, ptr %5, i64 304
  %46 = zext i1 %44 to i8
  store i8 %46, ptr %45, align 8
  br i1 %44, label %51, label %47

47:                                               ; preds = %33
  %48 = getelementptr inbounds i8, ptr %36, i64 148
  %49 = load i32, ptr %48, align 4
  %50 = getelementptr inbounds i8, ptr %5, i64 288
  store i32 %49, ptr %50, align 8
  br label %51

51:                                               ; preds = %47, %33
  %52 = getelementptr inbounds i8, ptr %5, i64 312
  store ptr %1, ptr %52, align 8
  %53 = getelementptr inbounds i8, ptr %5, i64 320
  store ptr %2, ptr %53, align 8
  %54 = call i32 @H5FA_iterate(ptr noundef %23, ptr noundef nonnull @H5D__farray_idx_iterate_cb, ptr noundef nonnull %5) #11
  %55 = icmp slt i32 %54, 0
  br i1 %55, label %56, label %60

56:                                               ; preds = %51
  %57 = load i64, ptr @H5E_DATASET_g, align 8
  %58 = load i64, ptr @H5E_BADITER_g, align 8
  %59 = call i32 (ptr, ptr, i32, i64, i64, ptr, ...) @H5E_printf_stack(ptr noundef nonnull @.str.2, ptr noundef nonnull @__func__.H5D__farray_idx_iterate, i32 noundef 1246, i64 noundef %57, i64 noundef %58, ptr noundef nonnull @.str.30) #11
  br label %60

60:                                               ; preds = %30, %56, %51, %26, %13
  %.0 = phi i32 [ -1, %26 ], [ %54, %56 ], [ %54, %51 ], [ -1, %30 ], [ -1, %13 ]
  ret i32 %.0
}